target datalayout = "e-m:e-p270:32:32-p271:32:32-p272:64:64-i64:64-i128:128-f80:128-n8:16:32:64-S128"
target triple = "x86_64-unknown-linux-gnu"

%struct.QTailQLink = type { ptr, ptr }
%struct.VirtioBusClass = type { %struct.BusClass, ptr, ptr, ptr, ptr, ptr, ptr, ptr, ptr, ptr, ptr, ptr, ptr, ptr, ptr, ptr, ptr, ptr, ptr, ptr, ptr, i8, ptr, ptr }
%struct.BusClass = type { %struct.ObjectClass, ptr, ptr, ptr, ptr, ptr, ptr, ptr, i32, i32 }
%struct.ObjectClass = type { ptr, ptr, [4 x ptr], [4 x ptr], ptr, ptr }
%struct.BusState = type { %struct.Object, ptr, ptr, ptr, i32, i8, i8, i32, %union.BusChildHead, %struct.BusStateEntry, %struct.ResettableState }
%struct.Object = type { ptr, ptr, ptr, i32, ptr }
%union.BusChildHead = type { %struct.QTailQLink }
%struct.BusStateEntry = type { ptr, ptr }
%struct.ResettableState = type { i32, i8, i8 }

@.str.8 = private unnamed_addr constant [7 x i8] c"device\00", align 1
@.str.9 = private unnamed_addr constant [101 x i8] c"/home/dtcxzyw/WorkSpace/Projects/compilers/llvm-opt-benchmark/bench/qemu/qemu/include/hw/qdev-core.h\00", align 1
@__func__.DEVICE = private unnamed_addr constant [7 x i8] c"DEVICE\00", align 1
@.str.10 = private unnamed_addr constant [4 x i8] c"bus\00", align 1
@__func__.BUS = private unnamed_addr constant [4 x i8] c"BUS\00", align 1
@.str.11 = private unnamed_addr constant [11 x i8] c"virtio-bus\00", align 1
@.str.12 = private unnamed_addr constant [109 x i8] c"/home/dtcxzyw/WorkSpace/Projects/compilers/llvm-opt-benchmark/bench/qemu/qemu/include/hw/virtio/virtio-bus.h\00", align 1
@__func__.VIRTIO_BUS = private unnamed_addr constant [11 x i8] c"VIRTIO_BUS\00", align 1
@__func__.VIRTIO_BUS_GET_CLASS = private unnamed_addr constant [21 x i8] c"VIRTIO_BUS_GET_CLASS\00", align 1

; Function Attrs: nounwind sspstrong uwtable
define internal ptr @VIRTIO_BUS_GET_CLASS(ptr noundef %obj) #0 {
entry:
  %obj.addr = alloca ptr, align 8
  store ptr %obj, ptr %obj.addr, align 8
  %0 = load ptr, ptr %obj.addr, align 8
  %call = call ptr @object_get_class(ptr noundef %0)
  %call1 = call ptr @object_class_dynamic_cast_assert(ptr noundef %call, ptr noundef @.str.11, ptr noundef @.str.12, i32 noundef 36, ptr noundef @__func__.VIRTIO_BUS_GET_CLASS)
  ret ptr %call1
}

; Function Attrs: nounwind sspstrong uwtable
define internal ptr @VIRTIO_BUS(ptr noundef %obj) #0 {
entry:
  %obj.addr = alloca ptr, align 8
  store ptr %obj, ptr %obj.addr, align 8
  %0 = load ptr, ptr %obj.addr, align 8
  %call = call ptr @object_dynamic_cast_assert(ptr noundef %0, ptr noundef @.str.11, ptr noundef @.str.12, i32 noundef 36, ptr noundef @__func__.VIRTIO_BUS)
  ret ptr %call
}

; Function Attrs: nounwind sspstrong uwtable
define internal ptr @BUS(ptr noundef %obj) #0 {
entry:
  %obj.addr = alloca ptr, align 8
  store ptr %obj, ptr %obj.addr, align 8
  %0 = load ptr, ptr %obj.addr, align 8
  %call = call ptr @object_dynamic_cast_assert(ptr noundef %0, ptr noundef @.str.10, ptr noundef @.str.9, i32 noundef 316, ptr noundef @__func__.BUS)
  ret ptr %call
}

; Function Attrs: nounwind sspstrong uwtable
define internal ptr @DEVICE(ptr noundef %obj) #0 {
entry:
  %obj.addr = alloca ptr, align 8
  store ptr %obj, ptr %obj.addr, align 8
  %0 = load ptr, ptr %obj.addr, align 8
  %call = call ptr @object_dynamic_cast_assert(ptr noundef %0, ptr noundef @.str.8, ptr noundef @.str.9, i32 noundef 77, ptr noundef @__func__.DEVICE)
  ret ptr %call
}

; Function Attrs: nounwind sspstrong uwtable
define dso_local zeroext i1 @virtio_bus_device_iommu_enabled(ptr noundef %vdev) #0 {
entry:
  %retval = alloca i1, align 1
  %vdev.addr = alloca ptr, align 8
  %qdev = alloca ptr, align 8
  %qbus = alloca ptr, align 8
  %bus = alloca ptr, align 8
  %klass = alloca ptr, align 8
  store ptr %vdev, ptr %vdev.addr, align 8
  %0 = load ptr, ptr %vdev.addr, align 8
  %call = call ptr @DEVICE(ptr noundef %0)
  store ptr %call, ptr %qdev, align 8
  %1 = load ptr, ptr %qdev, align 8
  %call1 = call ptr @qdev_get_parent_bus(ptr noundef %1)
  %call2 = call ptr @BUS(ptr noundef %call1)
  store ptr %call2, ptr %qbus, align 8
  %2 = load ptr, ptr %qbus, align 8
  %call3 = call ptr @VIRTIO_BUS(ptr noundef %2)
  store ptr %call3, ptr %bus, align 8
  %3 = load ptr, ptr %bus, align 8
  %call4 = call ptr @VIRTIO_BUS_GET_CLASS(ptr noundef %3)
  store ptr %call4, ptr %klass, align 8
  %4 = load ptr, ptr %klass, align 8
  %iommu_enabled = getelementptr inbounds %struct.VirtioBusClass, ptr %4, i32 0, i32 23
  %5 = load ptr, ptr %iommu_enabled, align 8
  %tobool = icmp ne ptr %5, null
  br i1 %tobool, label %if.end, label %if.then

if.then:                                          ; preds = %entry
  store i1 false, ptr %retval, align 1
  br label %return

if.end:                                           ; preds = %entry
  %6 = load ptr, ptr %klass, align 8
  %iommu_enabled5 = getelementptr inbounds %struct.VirtioBusClass, ptr %6, i32 0, i32 23
  %7 = load ptr, ptr %iommu_enabled5, align 8
  %8 = load ptr, ptr %qbus, align 8
  %parent = getelementptr inbounds %struct.BusState, ptr %8, i32 0, i32 1
  %9 = load ptr, ptr %parent, align 8
  %call6 = call zeroext i1 %7(ptr noundef %9)
  store i1 %call6, ptr %retval, align 1
  br label %return

return:                                           ; preds = %if.end, %if.then
  %10 = load i1, ptr %retval, align 1
  ret i1 %10
}