; Function Attrs: nounwind sspstrong uwtable
define dso_local zeroext i1 @virtio_bus_device_iommu_enabled(ptr noundef %vdev) local_unnamed_addr #0 {
entry:
  %call.i = tail call ptr @object_dynamic_cast_assert(ptr noundef %vdev, ptr noundef nonnull @.str.8, ptr noundef nonnull @.str.9, i32 noundef 77, ptr noundef nonnull @__func__.DEVICE) #5
  %call1 = tail call ptr @qdev_get_parent_bus(ptr noundef %call.i) #5
  %call.i3 = tail call ptr @object_dynamic_cast_assert(ptr noundef %call1, ptr noundef nonnull @.str.10, ptr noundef nonnull @.str.9, i32 noundef 316, ptr noundef nonnull @__func__.BUS) #5
  %call.i4 = tail call ptr @object_dynamic_cast_assert(ptr noundef %call.i3, ptr noundef nonnull @.str.11, ptr noundef nonnull @.str.12, i32 noundef 36, ptr noundef nonnull @__func__.VIRTIO_BUS) #5
  %call.i5 = tail call ptr @object_get_class(ptr noundef %call.i4) #5
  %call1.i = tail call ptr @object_class_dynamic_cast_assert(ptr noundef %call.i5, ptr noundef nonnull @.str.11, ptr noundef nonnull @.str.12, i32 noundef 36, ptr noundef nonnull @__func__.VIRTIO_BUS_GET_CLASS) #5
  %iommu_enabled = getelementptr inbounds nuw i8, ptr %call1.i, i64 336
  %0 = load ptr, ptr %iommu_enabled, align 8
  %tobool.not = icmp eq ptr %0, null
  br i1 %tobool.not, label %return, label %if.end

if.end:                                           ; preds = %entry
  %parent = getelementptr inbounds nuw i8, ptr %call.i3, i64 40
  %1 = load ptr, ptr %parent, align 8
  %call6 = tail call zeroext i1 %0(ptr noundef %1) #5
  br label %return

return:                                           ; preds = %entry, %if.end
  %retval.0 = phi i1 [ %call6, %if.end ], [ false, %entry ]
  ret i1 %retval.0
}